target datalayout = "e-m:e-p270:32:32-p271:32:32-p272:64:64-i64:64-i128:128-f80:128-n8:16:32:64-S128"
target triple = "x86_64-pc-linux-gnu"

%struct.PROV_ECDSA_CTX = type { ptr, ptr, ptr, i32, i8, [256 x i8], i64, [50 x i8], ptr, ptr, i64, ptr, i64, ptr, ptr, i32 }

; Function Attrs: nounwind uwtable
define internal i32 @ecdsa_signverify_message_update(ptr noundef %0, ptr noundef %1, i64 noundef %2) #0 {
  %4 = alloca i32, align 4
  %5 = alloca ptr, align 8
  %6 = alloca ptr, align 8
  %7 = alloca i64, align 8
  %8 = alloca ptr, align 8
  %9 = alloca i32, align 4
  store ptr %0, ptr %5, align 8, !tbaa !3
  store ptr %1, ptr %6, align 8, !tbaa !7
  store i64 %2, ptr %7, align 8, !tbaa !23
  call void @llvm.lifetime.start.p0(i64 8, ptr %8) #7
  %10 = load ptr, ptr %5, align 8, !tbaa !3
  store ptr %10, ptr %8, align 8, !tbaa !3
  %11 = load ptr, ptr %8, align 8, !tbaa !3
  %12 = icmp eq ptr %11, null
  br i1 %12, label %13, label %14

13:                                               ; preds = %3
  store i32 0, ptr %4, align 4
  store i32 1, ptr %9, align 4
  br label %21

14:                                               ; preds = %3
  %15 = load ptr, ptr %8, align 8, !tbaa !3
  %16 = getelementptr inbounds nuw %struct.PROV_ECDSA_CTX, ptr %15, i32 0, i32 9
  %17 = load ptr, ptr %16, align 8, !tbaa !25
  %18 = load ptr, ptr %6, align 8, !tbaa !7
  %19 = load i64, ptr %7, align 8, !tbaa !23
  %20 = call i32 @EVP_DigestUpdate(ptr noundef %17, ptr noundef %18, i64 noundef %19)
  store i32 %20, ptr %4, align 4
  store i32 1, ptr %9, align 4
  br label %21

21:                                               ; preds = %14, %13
  call void @llvm.lifetime.end.p0(i64 8, ptr %8) #7
  %22 = load i32, ptr %4, align 4
  ret i32 %22
}

; Function Attrs: nounwind uwtable
define internal i32 @ecdsa_sign_message_final(ptr noundef %0, ptr noundef %1, ptr noundef %2, i64 noundef %3) #0 {
  %5 = alloca i32, align 4
  %6 = alloca ptr, align 8
  %7 = alloca ptr, align 8
  %8 = alloca ptr, align 8
  %9 = alloca i64, align 8
  %10 = alloca ptr, align 8
  %11 = alloca [64 x i8], align 16
  %12 = alloca i32, align 4
  %13 = alloca i32, align 4
  store ptr %0, ptr %6, align 8, !tbaa !3
  store ptr %1, ptr %7, align 8, !tbaa !7
  store ptr %2, ptr %8, align 8, !tbaa !21
  store i64 %3, ptr %9, align 8, !tbaa !23
  call void @llvm.lifetime.start.p0(i64 8, ptr %10) #7
  %14 = load ptr, ptr %6, align 8, !tbaa !3
  store ptr %14, ptr %10, align 8, !tbaa !3
  call void @llvm.lifetime.start.p0(i64 64, ptr %11) #7
  call void @llvm.lifetime.start.p0(i64 4, ptr %12) #7
  store i32 0, ptr %12, align 4, !tbaa !26
  %15 = call i32 @ossl_prov_is_running()
  %16 = icmp ne i32 %15, 0
  br i1 %16, label %17, label %20

17:                                               ; preds = %4
  %18 = load ptr, ptr %10, align 8, !tbaa !3
  %19 = icmp eq ptr %18, null
  br i1 %19, label %20, label %21

20:                                               ; preds = %17, %4
  store i32 0, ptr %5, align 4
  store i32 1, ptr %13, align 4
  br label %47

21:                                               ; preds = %17
  %22 = load ptr, ptr %10, align 8, !tbaa !3
  %23 = getelementptr inbounds nuw %struct.PROV_ECDSA_CTX, ptr %22, i32 0, i32 9
  %24 = load ptr, ptr %23, align 8, !tbaa !25
  %25 = icmp eq ptr %24, null
  br i1 %25, label %26, label %27

26:                                               ; preds = %21
  store i32 0, ptr %5, align 4
  store i32 1, ptr %13, align 4
  br label %47

27:                                               ; preds = %21
  %28 = load ptr, ptr %7, align 8, !tbaa !7
  %29 = icmp ne ptr %28, null
  br i1 %29, label %30, label %38

30:                                               ; preds = %27
  %31 = load ptr, ptr %10, align 8, !tbaa !3
  %32 = getelementptr inbounds nuw %struct.PROV_ECDSA_CTX, ptr %31, i32 0, i32 9
  %33 = load ptr, ptr %32, align 8, !tbaa !25
  %34 = getelementptr inbounds [64 x i8], ptr %11, i64 0, i64 0
  %35 = call i32 @EVP_DigestFinal_ex(ptr noundef %33, ptr noundef %34, ptr noundef %12)
  %36 = icmp ne i32 %35, 0
  br i1 %36, label %38, label %37

37:                                               ; preds = %30
  store i32 0, ptr %5, align 4
  store i32 1, ptr %13, align 4
  br label %47

38:                                               ; preds = %30, %27
  %39 = load ptr, ptr %6, align 8, !tbaa !3
  %40 = load ptr, ptr %7, align 8, !tbaa !7
  %41 = load ptr, ptr %8, align 8, !tbaa !21
  %42 = load i64, ptr %9, align 8, !tbaa !23
  %43 = getelementptr inbounds [64 x i8], ptr %11, i64 0, i64 0
  %44 = load i32, ptr %12, align 4, !tbaa !26
  %45 = zext i32 %44 to i64
  %46 = call i32 @ecdsa_sign_directly(ptr noundef %39, ptr noundef %40, ptr noundef %41, i64 noundef %42, ptr noundef %43, i64 noundef %45)
  store i32 %46, ptr %5, align 4
  store i32 1, ptr %13, align 4
  br label %47

47:                                               ; preds = %38, %37, %26, %20
  call void @llvm.lifetime.end.p0(i64 4, ptr %12) #7
  call void @llvm.lifetime.end.p0(i64 64, ptr %11) #7
  call void @llvm.lifetime.end.p0(i64 8, ptr %10) #7
  %48 = load i32, ptr %5, align 4
  ret i32 %48
}

; Function Attrs: nounwind uwtable
define internal i32 @ecdsa_sign(ptr noundef %0, ptr noundef %1, ptr noundef %2, i64 noundef %3, ptr noundef %4, i64 noundef %5) #0 {
  %7 = alloca i32, align 4
  %8 = alloca ptr, align 8
  %9 = alloca ptr, align 8
  %10 = alloca ptr, align 8
  %11 = alloca i64, align 8
  %12 = alloca ptr, align 8
  %13 = alloca i64, align 8
  %14 = alloca ptr, align 8
  %15 = alloca i32, align 4
  store ptr %0, ptr %8, align 8, !tbaa !3
  store ptr %1, ptr %9, align 8, !tbaa !7
  store ptr %2, ptr %10, align 8, !tbaa !21
  store i64 %3, ptr %11, align 8, !tbaa !23
  store ptr %4, ptr %12, align 8, !tbaa !7
  store i64 %5, ptr %13, align 8, !tbaa !23
  call void @llvm.lifetime.start.p0(i64 8, ptr %14) #7
  %16 = load ptr, ptr %8, align 8, !tbaa !3
  store ptr %16, ptr %14, align 8, !tbaa !3
  %17 = load ptr, ptr %14, align 8, !tbaa !3
  %18 = getelementptr inbounds nuw %struct.PROV_ECDSA_CTX, ptr %17, i32 0, i32 3
  %19 = load i32, ptr %18, align 8, !tbaa !24
  %20 = icmp eq i32 %19, 16384
  br i1 %20, label %21, label %43

21:                                               ; preds = %6
  %22 = load ptr, ptr %9, align 8, !tbaa !7
  %23 = icmp eq ptr %22, null
  br i1 %23, label %24, label %30

24:                                               ; preds = %21
  %25 = load ptr, ptr %14, align 8, !tbaa !3
  %26 = load ptr, ptr %9, align 8, !tbaa !7
  %27 = load ptr, ptr %10, align 8, !tbaa !21
  %28 = load i64, ptr %11, align 8, !tbaa !23
  %29 = call i32 @ecdsa_sign_message_final(ptr noundef %25, ptr noundef %26, ptr noundef %27, i64 noundef %28)
  store i32 %29, ptr %7, align 4
  store i32 1, ptr %15, align 4
  br label %51

30:                                               ; preds = %21
  %31 = load ptr, ptr %14, align 8, !tbaa !3
  %32 = load ptr, ptr %12, align 8, !tbaa !7
  %33 = load i64, ptr %13, align 8, !tbaa !23
  %34 = call i32 @ecdsa_signverify_message_update(ptr noundef %31, ptr noundef %32, i64 noundef %33)
  %35 = icmp sle i32 %34, 0
  br i1 %35, label %36, label %37

36:                                               ; preds = %30
  store i32 0, ptr %7, align 4
  store i32 1, ptr %15, align 4
  br label %51

37:                                               ; preds = %30
  %38 = load ptr, ptr %14, align 8, !tbaa !3
  %39 = load ptr, ptr %9, align 8, !tbaa !7
  %40 = load ptr, ptr %10, align 8, !tbaa !21
  %41 = load i64, ptr %11, align 8, !tbaa !23
  %42 = call i32 @ecdsa_sign_message_final(ptr noundef %38, ptr noundef %39, ptr noundef %40, i64 noundef %41)
  store i32 %42, ptr %7, align 4
  store i32 1, ptr %15, align 4
  br label %51

43:                                               ; preds = %6
  %44 = load ptr, ptr %14, align 8, !tbaa !3
  %45 = load ptr, ptr %9, align 8, !tbaa !7
  %46 = load ptr, ptr %10, align 8, !tbaa !21
  %47 = load i64, ptr %11, align 8, !tbaa !23
  %48 = load ptr, ptr %12, align 8, !tbaa !7
  %49 = load i64, ptr %13, align 8, !tbaa !23
  %50 = call i32 @ecdsa_sign_directly(ptr noundef %44, ptr noundef %45, ptr noundef %46, i64 noundef %47, ptr noundef %48, i64 noundef %49)
  store i32 %50, ptr %7, align 4
  store i32 1, ptr %15, align 4
  br label %51

51:                                               ; preds = %43, %37, %36, %24
  call void @llvm.lifetime.end.p0(i64 8, ptr %14) #7
  %52 = load i32, ptr %7, align 4
  ret i32 %52
}