; Function Attrs: nounwind uwtable
define internal range(i32 0, 2) i32 @ecdsa_sign(ptr noundef %0, ptr noundef %1, ptr noundef writeonly captures(none) %2, i64 noundef %3, ptr noundef %4, i64 noundef %5) #0 {
  %7 = alloca [64 x i8], align 16
  %8 = alloca i32, align 4
  %9 = getelementptr inbounds nuw i8, ptr %0, i64 24
  %10 = load i32, ptr %9, align 8, !tbaa !17
  %11 = icmp eq i32 %10, 16384
  br i1 %11, label %12, label %43

12:                                               ; preds = %6
  %13 = icmp eq ptr %1, null
  br i1 %13, label %14, label %ecdsa_signverify_message_update.exit

14:                                               ; preds = %12
  %15 = tail call i32 @ossl_prov_is_running() #8
  %16 = icmp eq i32 %15, 0
  br i1 %16, label %ecdsa_sign_message_final.exit, label %17

17:                                               ; preds = %14
  %18 = getelementptr inbounds nuw i8, ptr %0, i64 360
  %19 = load ptr, ptr %18, align 8, !tbaa !18
  %20 = icmp eq ptr %19, null
  br i1 %20, label %ecdsa_sign_message_final.exit, label %21

21:                                               ; preds = %17
  %22 = getelementptr inbounds nuw i8, ptr %0, i64 16
  %23 = load ptr, ptr %22, align 8, !tbaa !19
  %24 = tail call i32 @ECDSA_size(ptr noundef %23) #8
  %25 = tail call i32 @ossl_prov_is_running() #8
  %.not.i.i = icmp eq i32 %25, 0
  br i1 %.not.i.i, label %ecdsa_sign_message_final.exit, label %26

26:                                               ; preds = %21
  %27 = sext i32 %24 to i64
  store i64 %27, ptr %2, align 8, !tbaa !20
  br label %ecdsa_sign_message_final.exit

ecdsa_signverify_message_update.exit:             ; preds = %12
  %28 = getelementptr inbounds nuw i8, ptr %0, i64 360
  %29 = load ptr, ptr %28, align 8, !tbaa !18
  %30 = tail call i32 @EVP_DigestUpdate(ptr noundef %29, ptr noundef %4, i64 noundef %5) #8
  %31 = icmp slt i32 %30, 1
  br i1 %31, label %ecdsa_sign_message_final.exit, label %32

32:                                               ; preds = %ecdsa_signverify_message_update.exit
  call void @llvm.lifetime.start.p0(i64 64, ptr nonnull %7) #8
  call void @llvm.lifetime.start.p0(i64 4, ptr nonnull %8) #8
  store i32 0, ptr %8, align 4, !tbaa !21
  %33 = tail call i32 @ossl_prov_is_running() #8
  %34 = icmp eq i32 %33, 0
  br i1 %34, label %ecdsa_sign_message_final.exit25, label %35

35:                                               ; preds = %32
  %36 = load ptr, ptr %28, align 8, !tbaa !18
  %37 = icmp eq ptr %36, null
  br i1 %37, label %ecdsa_sign_message_final.exit25, label %38

38:                                               ; preds = %35
  %39 = call i32 @EVP_DigestFinal_ex(ptr noundef nonnull %36, ptr noundef nonnull %7, ptr noundef nonnull %8) #8
  %.not14.i = icmp eq i32 %39, 0
  br i1 %.not14.i, label %ecdsa_sign_message_final.exit25, label %.split10.i

.split10.i:                                       ; preds = %38
  %40 = load i32, ptr %8, align 4, !tbaa !21
  %41 = zext i32 %40 to i64
  %42 = call fastcc i32 @ecdsa_sign_directly(ptr noundef nonnull %0, ptr noundef nonnull %1, ptr noundef %2, i64 noundef %3, ptr noundef nonnull %7, i64 noundef %41)
  br label %ecdsa_sign_message_final.exit25

ecdsa_sign_message_final.exit25:                  ; preds = %32, %35, %38, %.split10.i
  %.0.i23 = phi i32 [ 0, %32 ], [ 0, %35 ], [ 0, %38 ], [ %42, %.split10.i ]
  call void @llvm.lifetime.end.p0(i64 4, ptr nonnull %8) #8
  call void @llvm.lifetime.end.p0(i64 64, ptr nonnull %7) #8
  br label %ecdsa_sign_message_final.exit

43:                                               ; preds = %6
  %44 = tail call fastcc i32 @ecdsa_sign_directly(ptr noundef nonnull %0, ptr noundef %1, ptr noundef %2, i64 noundef %3, ptr noundef %4, i64 noundef %5)
  br label %ecdsa_sign_message_final.exit

ecdsa_sign_message_final.exit:                    ; preds = %26, %21, %17, %14, %ecdsa_signverify_message_update.exit, %43, %ecdsa_sign_message_final.exit25
  %.0 = phi i32 [ %.0.i23, %ecdsa_sign_message_final.exit25 ], [ %44, %43 ], [ 0, %ecdsa_signverify_message_update.exit ], [ 0, %14 ], [ 0, %17 ], [ 0, %21 ], [ 1, %26 ]
  ret i32 %.0
}